Certificate:
    Data:
        Version: 3 (0x2)
        Serial Number: 4097 (0x1001)
        Signature Algorithm: ecdsa-with-SHA256
        Issuer: C=KH, ST=KH, O=KH, OU=KH, CN=rootca.kasei.haku/emailAddress=kasei@kasei.haku
        Validity
            Not Before: Jan  7 19:00:47 2022 GMT
            Not After : Jan  7 19:00:47 2023 GMT
        Subject: C=KH, ST=KH, O=KH, OU=KH, CN=1291114093.ml/emailAddress=admin@1291114093.ml
        Subject Public Key Info:
            Public Key Algorithm: id-ecPublicKey
                Public-Key: (384 bit)
                pub:
                    04:6f:33:ea:31:d7:1a:98:a1:db:7c:7e:d9:d4:96:
                    49:8c:c2:8a:2f:bb:fb:12:e8:1b:f1:0e:4f:73:37:
                    1e:fd:9d:76:c2:4e:d4:0c:c2:48:6a:82:06:36:a5:
                    4a:6d:74:ff:e1:06:f1:8a:d5:0e:1f:50:06:d9:9d:
                    fd:98:8b:81:f3:1d:ba:9f:85:e8:bf:c1:c7:7f:55:
                    38:46:13:17:7d:72:b1:7f:c0:a9:30:95:4e:96:f7:
                    65:b5:97:e9:a5:a9:63
                ASN1 OID: secp384r1
                NIST CURVE: P-384
        X509v3 extensions:
            X509v3 Basic Constraints: critical
                CA:FALSE
            X509v3 Key Usage: critical
                Digital Signature, Non Repudiation, Key Encipherment, Data Encipherment
            X509v3 Subject Key Identifier:
                9A:64:3C:C5:82:E3:01:8A:1D:19:21:C5:CE:60:57:3E:D3:D5:21:50
            X509v3 Authority Key Identifier:
                keyid:99:54:54:51:DF:6F:08:77:E7:F6:8F:0E:63:A8:CB:C7:6F:8D:87:12
                DirName:/C=KH/ST=KH/O=KH/OU=KH/CN=rootca.kasei.haku/emailAddress=kasei@kasei.haku
                serial:10:00

            X509v3 Subject Alternative Name:
                email:admin@1291114093.ml, DNS:1291114093.ml, DNS:*.1291114093.ml, DNS:localhost, IP Address:66.98.122.202, IP Address:127.0.0.1, IP Address:0:0:0:0:0:0:0:1
    Signature Algorithm: ecdsa-with-SHA256
         30:65:02:31:00:ea:97:24:73:36:3d:44:2e:12:31:af:b6:e4:
         97:d1:d4:f4:fa:78:5f:53:61:d4:4f:e2:42:5e:c1:81:e3:aa:
         e5:df:3a:f7:bd:b4:d4:a3:6b:e5:21:99:49:fd:4e:30:4a:02:
         30:3f:36:0f:62:5b:f7:41:aa:79:21:37:69:ed:60:e5:c4:96:
         6e:aa:d3:34:93:fa:bd:13:e3:65:7e:dd:31:f9:06:8d:f0:4a:
         50:f9:ef:ac:95:38:b5:b5:1c:04:7d:af:45
-----BEGIN CERTIFICATE-----
MIIDWTCCAt+gAwIBAgICEAEwCgYIKoZIzj0EAwIwcTELMAkGA1UEBhMCS0gxCzAJ
BgNVBAgMAktIMQswCQYDVQQKDAJLSDELMAkGA1UECwwCS0gxGjAYBgNVBAMMEXJv
b3RjYS5rYXNlaS5oYWt1MR8wHQYJKoZIhvcNAQkBFhBrYXNlaUBrYXNlaS5oYWt1
MB4XDTIyMDEwNzE5MDA0N1oXDTIzMDEwNzE5MDA0N1owcDELMAkGA1UEBhMCS0gx
CzAJBgNVBAgMAktIMQswCQYDVQQKDAJLSDELMAkGA1UECwwCS0gxFjAUBgNVBAMM
DTEyOTExMTQwOTMubWwxIjAgBgkqhkiG9w0BCQEWE2FkbWluQDEyOTExMTQwOTMu
bWwwdjAQBgcqhkjOPQIBBgUrgQQAIgNiAARvM+ox1xqYodt8ftnUlkmMwoovu/sS
6BvxDk9zNx79nXbCTtQMwkhqggY2pUptdP/hBvGK1Q4fUAbZnf2Yi4HzHbqfhei/
wcd/VThGExd9crF/wKkwlU6W92W1l+mlqWOjggFJMIIBRTAMBgNVHRMBAf8EAjAA
MA4GA1UdDwEB/wQEAwIE8DAdBgNVHQ4EFgQUmmQ8xYLjAYodGSHFzmBXPtPVIVAw
gZwGA1UdIwSBlDCBkYAUmVRUUd9vCHfn9o8OY6jLx2+NhxKhdaRzMHExCzAJBgNV
BAYTAktIMQswCQYDVQQIDAJLSDELMAkGA1UECgwCS0gxCzAJBgNVBAsMAktIMRow
GAYDVQQDDBFyb290Y2Eua2FzZWkuaGFrdTEfMB0GCSqGSIb3DQEJARYQa2FzZWlA
a2FzZWkuaGFrdYICEAAwZwYDVR0RBGAwXoETYWRtaW5AMTI5MTExNDA5My5tbIIN
MTI5MTExNDA5My5tbIIPKi4xMjkxMTE0MDkzLm1sgglsb2NhbGhvc3SHBEJiesqH
BH8AAAGHEAAAAAAAAAAAAAAAAAAAAAEwCgYIKoZIzj0EAwIDaAAwZQIxAOqXJHM2
PUQuEjGvtuSX0dT0+nhfU2HUT+JCXsGB46rl3zr3vbTUo2vlIZlJ/U4wSgIwPzYP
Ylv3Qap5ITdp7WDlxJZuqtM0k/q9E+Nlft0x+QaN8EpQ+e+slTi1tRwEfa9F
-----END CERTIFICATE-----
